; Function Attrs: mustprogress uwtable
define noalias noundef nonnull ptr @lean_uv_udp_cancel_recv(ptr noundef readonly captures(none) %0, ptr noundef readnone captures(none) %1) local_unnamed_addr #0 {
  %3 = getelementptr i8, ptr %0, i64 16
  %.val = load ptr, ptr %3, align 8, !tbaa !40
  tail call void @_ZN4lean15event_loop_lockEPNS_12event_loop_tE(ptr noundef nonnull @_ZN4lean9global_evE)
  %4 = getelementptr inbounds nuw i8, ptr %.val, i64 8
  %5 = load ptr, ptr %4, align 8, !tbaa !3
  %6 = icmp eq ptr %5, null
  br i1 %6, label %7, label %11

7:                                                ; preds = %2
  tail call void @_ZN4lean17event_loop_unlockEPNS_12event_loop_tE(ptr noundef nonnull @_ZN4lean9global_evE)
  tail call void @lean_inc_heartbeat()
  %8 = tail call noalias ptr @mi_malloc_small(i64 noundef 24) #15
  %9 = icmp eq ptr %8, null
  br i1 %9, label %10, label %_ZL20lean_io_result_mk_okP11lean_object.exit

10:                                               ; preds = %7
  tail call void @lean_internal_panic_out_of_memory() #16
  unreachable

11:                                               ; preds = %2
  %12 = load ptr, ptr %.val, align 8, !tbaa !20
  %13 = tail call i32 @uv_udp_recv_stop(ptr noundef %12)
  %14 = load ptr, ptr %4, align 8, !tbaa !3
  %15 = ptrtoint ptr %14 to i64
  %16 = and i64 %15, 1
  %.not20 = icmp eq i64 %16, 0
  br i1 %.not20, label %17, label %_ZL8lean_decP11lean_object.exit14

17:                                               ; preds = %11
  %18 = load i32, ptr %14, align 4, !tbaa !36
  %19 = icmp sgt i32 %18, 1
  br i1 %19, label %20, label %22, !prof !9

20:                                               ; preds = %17
  %21 = add nsw i32 %18, -1
  store i32 %21, ptr %14, align 4, !tbaa !36
  br label %_ZL8lean_decP11lean_object.exit14

22:                                               ; preds = %17
  %.not.i = icmp eq i32 %18, 0
  br i1 %.not.i, label %_ZL8lean_decP11lean_object.exit14, label %23

23:                                               ; preds = %22
  tail call void @lean_dec_ref_cold(ptr noundef nonnull %14)
  br label %_ZL8lean_decP11lean_object.exit14

_ZL8lean_decP11lean_object.exit14:                ; preds = %23, %22, %20, %11
  store ptr null, ptr %4, align 8, !tbaa !3
  %24 = getelementptr inbounds nuw i8, ptr %.val, i64 16
  %25 = load ptr, ptr %24, align 8, !tbaa !19
  %.not = icmp eq ptr %25, null
  br i1 %.not, label %36, label %26

26:                                               ; preds = %_ZL8lean_decP11lean_object.exit14
  %27 = ptrtoint ptr %25 to i64
  %28 = and i64 %27, 1
  %.not21 = icmp eq i64 %28, 0
  br i1 %.not21, label %29, label %_ZL8lean_decP11lean_object.exit13

29:                                               ; preds = %26
  %30 = load i32, ptr %25, align 4, !tbaa !36
  %31 = icmp sgt i32 %30, 1
  br i1 %31, label %32, label %34, !prof !9

32:                                               ; preds = %29
  %33 = add nsw i32 %30, -1
  store i32 %33, ptr %25, align 4, !tbaa !36
  br label %_ZL8lean_decP11lean_object.exit13

34:                                               ; preds = %29
  %.not.i15 = icmp eq i32 %30, 0
  br i1 %.not.i15, label %_ZL8lean_decP11lean_object.exit13, label %35

35:                                               ; preds = %34
  tail call void @lean_dec_ref_cold(ptr noundef nonnull %25)
  br label %_ZL8lean_decP11lean_object.exit13

_ZL8lean_decP11lean_object.exit13:                ; preds = %35, %34, %32, %26
  store ptr null, ptr %24, align 8, !tbaa !19
  br label %36

36:                                               ; preds = %_ZL8lean_decP11lean_object.exit13, %_ZL8lean_decP11lean_object.exit14
  %37 = ptrtoint ptr %.val to i64
  %38 = and i64 %37, 1
  %.not22 = icmp eq i64 %38, 0
  br i1 %.not22, label %39, label %_ZL8lean_decP11lean_object.exit

39:                                               ; preds = %36
  %40 = load i32, ptr %.val, align 4, !tbaa !36
  %41 = icmp sgt i32 %40, 1
  br i1 %41, label %42, label %44, !prof !9

42:                                               ; preds = %39
  %43 = add nsw i32 %40, -1
  store i32 %43, ptr %.val, align 4, !tbaa !36
  br label %_ZL8lean_decP11lean_object.exit

44:                                               ; preds = %39
  %.not.i17 = icmp eq i32 %40, 0
  br i1 %.not.i17, label %_ZL8lean_decP11lean_object.exit, label %45

45:                                               ; preds = %44
  tail call void @lean_dec_ref_cold(ptr noundef nonnull %.val)
  br label %_ZL8lean_decP11lean_object.exit

_ZL8lean_decP11lean_object.exit:                  ; preds = %45, %44, %42, %36
  tail call void @_ZN4lean17event_loop_unlockEPNS_12event_loop_tE(ptr noundef nonnull @_ZN4lean9global_evE)
  tail call void @lean_inc_heartbeat()
  %46 = tail call noalias ptr @mi_malloc_small(i64 noundef 24) #15
  %47 = icmp eq ptr %46, null
  br i1 %47, label %48, label %_ZL20lean_io_result_mk_okP11lean_object.exit

48:                                               ; preds = %_ZL8lean_decP11lean_object.exit
  tail call void @lean_internal_panic_out_of_memory() #16
  unreachable

_ZL20lean_io_result_mk_okP11lean_object.exit:     ; preds = %_ZL8lean_decP11lean_object.exit, %7
  %.sink26 = phi ptr [ %8, %7 ], [ %46, %_ZL8lean_decP11lean_object.exit ]
  %49 = getelementptr inbounds nuw i8, ptr %.sink26, i64 4
  store i32 1, ptr %.sink26, align 4, !tbaa !36
  store i32 131096, ptr %49, align 4
  %50 = getelementptr inbounds nuw i8, ptr %.sink26, i64 8
  store ptr inttoptr (i64 1 to ptr), ptr %50, align 8, !tbaa !30
  %51 = getelementptr inbounds nuw i8, ptr %.sink26, i64 16
  store ptr inttoptr (i64 1 to ptr), ptr %51, align 8, !tbaa !30
  ret ptr %.sink26
}